target datalayout = "e-m:e-p270:32:32-p271:32:32-p272:64:64-i64:64-i128:128-f80:128-n8:16:32:64-S128"
target triple = "x86_64-unknown-linux-gnu"

%class.app = type { %class.expr, ptr, i32, [0 x ptr] }
%class.expr = type { %class.ast }
%class.ast = type { i32, i24, i32, i32 }

; Function Attrs: mustprogress nounwind uwtable
define linkonce_odr hidden noundef i32 @_ZN3smt5enode14get_enode_sizeEj(i32 noundef %num_args) #4 comdat align 2 {
entry:
  %num_args.addr = alloca i32, align 4
  store i32 %num_args, ptr %num_args.addr, align 4
  %0 = load i32, ptr %num_args.addr, align 4
  %conv = zext i32 %0 to i64
  %mul = mul i64 %conv, 8
  %add = add i64 112, %mul
  %conv1 = trunc i64 %add to i32
  ret i32 %conv1
}

; Function Attrs: mustprogress nounwind uwtable
define linkonce_odr hidden noundef i32 @_ZNK3app12get_num_argsEv(ptr noundef nonnull align 8 dereferenceable(32) %this) #4 comdat align 2 {
entry:
  %this.addr = alloca ptr, align 8
  store ptr %this, ptr %this.addr, align 8
  %this1 = load ptr, ptr %this.addr, align 8
  %m_num_args = getelementptr inbounds %class.app, ptr %this1, i32 0, i32 2
  %0 = load i32, ptr %m_num_args, align 8
  ret i32 %0
}

; Function Attrs: mustprogress uwtable
define hidden noundef ptr @_ZN3smt5enode2mkER11ast_managerR6regionRK10ptr_vectorIS0_EP3appjbbjbb(ptr noundef nonnull align 8 dereferenceable(976) %m, ptr noundef nonnull align 8 dereferenceable(40) %r, ptr noundef nonnull align 8 dereferenceable(8) %app2enode, ptr noundef %owner, i32 noundef %generation, i1 noundef zeroext %suppress_args, i1 noundef zeroext %merge_tf, i32 noundef %iscope_lvl, i1 noundef zeroext %cgc_enabled, i1 noundef zeroext %update_children_parent) #5 align 2 {
entry:
  %m.addr = alloca ptr, align 8
  %r.addr = alloca ptr, align 8
  %app2enode.addr = alloca ptr, align 8
  %owner.addr = alloca ptr, align 8
  %generation.addr = alloca i32, align 4
  %suppress_args.addr = alloca i8, align 1
  %merge_tf.addr = alloca i8, align 1
  %iscope_lvl.addr = alloca i32, align 4
  %cgc_enabled.addr = alloca i8, align 1
  %update_children_parent.addr = alloca i8, align 1
  %sz = alloca i32, align 4
  %mem = alloca ptr, align 8
  store ptr %m, ptr %m.addr, align 8
  store ptr %r, ptr %r.addr, align 8
  store ptr %app2enode, ptr %app2enode.addr, align 8
  store ptr %owner, ptr %owner.addr, align 8
  store i32 %generation, ptr %generation.addr, align 4
  %frombool = zext i1 %suppress_args to i8
  store i8 %frombool, ptr %suppress_args.addr, align 1
  %frombool1 = zext i1 %merge_tf to i8
  store i8 %frombool1, ptr %merge_tf.addr, align 1
  store i32 %iscope_lvl, ptr %iscope_lvl.addr, align 4
  %frombool2 = zext i1 %cgc_enabled to i8
  store i8 %frombool2, ptr %cgc_enabled.addr, align 1
  %frombool3 = zext i1 %update_children_parent to i8
  store i8 %frombool3, ptr %update_children_parent.addr, align 1
  %0 = load i8, ptr %suppress_args.addr, align 1
  %tobool = trunc i8 %0 to i1
  br i1 %tobool, label %cond.true, label %cond.false

cond.true:                                        ; preds = %entry
  br label %cond.end

cond.false:                                       ; preds = %entry
  %1 = load ptr, ptr %owner.addr, align 8
  %call = call noundef i32 @_ZNK3app12get_num_argsEv(ptr noundef nonnull align 8 dereferenceable(32) %1)
  br label %cond.end

cond.end:                                         ; preds = %cond.false, %cond.true
  %cond = phi i32 [ 0, %cond.true ], [ %call, %cond.false ]
  %call4 = call noundef i32 @_ZN3smt5enode14get_enode_sizeEj(i32 noundef %cond)
  store i32 %call4, ptr %sz, align 4
  %2 = load ptr, ptr %r.addr, align 8
  %3 = load i32, ptr %sz, align 4
  %conv = zext i32 %3 to i64
  %call5 = call noundef ptr @_ZN6region8allocateEm(ptr noundef nonnull align 8 dereferenceable(40) %2, i64 noundef %conv)
  store ptr %call5, ptr %mem, align 8
  %4 = load ptr, ptr %m.addr, align 8
  %5 = load ptr, ptr %mem, align 8
  %6 = load ptr, ptr %app2enode.addr, align 8
  %7 = load ptr, ptr %owner.addr, align 8
  %8 = load i32, ptr %generation.addr, align 4
  %9 = load i8, ptr %suppress_args.addr, align 1
  %tobool6 = trunc i8 %9 to i1
  %10 = load i8, ptr %merge_tf.addr, align 1
  %tobool7 = trunc i8 %10 to i1
  %11 = load i32, ptr %iscope_lvl.addr, align 4
  %12 = load i8, ptr %cgc_enabled.addr, align 1
  %tobool8 = trunc i8 %12 to i1
  %13 = load i8, ptr %update_children_parent.addr, align 1
  %tobool9 = trunc i8 %13 to i1
  %call10 = call noundef ptr @_ZN3smt5enode4initER11ast_managerPvRK10ptr_vectorIS0_EP3appjbbjbb(ptr noundef nonnull align 8 dereferenceable(976) %4, ptr noundef %5, ptr noundef nonnull align 8 dereferenceable(8) %6, ptr noundef %7, i32 noundef %8, i1 noundef zeroext %tobool6, i1 noundef zeroext %tobool7, i32 noundef %11, i1 noundef zeroext %tobool8, i1 noundef zeroext %tobool9)
  ret ptr %call10
}