; Function Attrs: mustprogress uwtable
define hidden noundef ptr @_ZN3smt5enode2mkER11ast_managerR6regionRK10ptr_vectorIS0_EP3appjbbjbb(ptr noundef nonnull align 8 dereferenceable(976) %m, ptr noundef nonnull align 8 dereferenceable(40) %r, ptr nocapture noundef nonnull readonly align 8 dereferenceable(8) %app2enode, ptr noundef %owner, i32 noundef %generation, i1 noundef zeroext %suppress_args, i1 noundef zeroext %merge_tf, i32 noundef %iscope_lvl, i1 noundef zeroext %cgc_enabled, i1 noundef zeroext %update_children_parent) local_unnamed_addr #3 align 2 {
entry:
  br i1 %suppress_args, label %cond.end, label %cond.false

cond.false:                                       ; preds = %entry
  %m_num_args.i = getelementptr inbounds i8, ptr %owner, i64 24
  %0 = load i32, ptr %m_num_args.i, align 8
  %1 = shl i32 %0, 3
  %2 = add i32 %1, 112
  %3 = zext i32 %2 to i64
  br label %cond.end

cond.end:                                         ; preds = %entry, %cond.false
  %cond = phi i64 [ %3, %cond.false ], [ 112, %entry ]
  %call5 = tail call noundef ptr @_ZN6region8allocateEm(ptr noundef nonnull align 8 dereferenceable(40) %r, i64 noundef %cond)
  %call10 = tail call noundef ptr @_ZN3smt5enode4initER11ast_managerPvRK10ptr_vectorIS0_EP3appjbbjbb(ptr noundef nonnull align 8 dereferenceable(976) %m, ptr noundef %call5, ptr noundef nonnull align 8 dereferenceable(8) %app2enode, ptr noundef %owner, i32 noundef %generation, i1 noundef zeroext %suppress_args, i1 noundef zeroext %merge_tf, i32 noundef %iscope_lvl, i1 noundef zeroext %cgc_enabled, i1 noundef zeroext %update_children_parent)
  ret ptr %call5
}